target datalayout = "e-m:e-p270:32:32-p271:32:32-p272:64:64-i64:64-i128:128-f80:128-n8:16:32:64-S128"
target triple = "x86_64-pc-linux-gnu"

%struct.yyguts_t = type { ptr, ptr, ptr, i64, i64, ptr, i8, i32, i32, ptr, i32, i32, i32, i32, i32, ptr, i32, ptr, i32, i32, ptr, i32, i32 }
%struct.uat_load_scanner_state_t = type { ptr, ptr, ptr, i8, i32, ptr, i32, ptr, i32, i64 }
%struct.epan_uat = type { ptr, i64, ptr, i8, ptr, i32, ptr, ptr, ptr, ptr, ptr, ptr, ptr, ptr, ptr, i32, ptr, ptr, ptr, i8, ptr, ptr, i8 }
%struct._GArray = type { ptr, i32 }

@.str.20 = private unnamed_addr constant [4 x i8] c"%s\0A\00", align 1

; Function Attrs: nounwind null_pointer_is_valid sspstrong uwtable
define internal i32 @yy_init_globals(ptr noundef %0) #2 {
  %2 = alloca ptr, align 8
  %3 = alloca ptr, align 8
  store ptr %0, ptr %2, align 8
  call void @llvm.lifetime.start.p0(i64 8, ptr %3) #17
  %4 = load ptr, ptr %2, align 8
  store ptr %4, ptr %3, align 8
  %5 = load ptr, ptr %3, align 8
  %6 = getelementptr inbounds nuw %struct.yyguts_t, ptr %5, i32 0, i32 5
  store ptr null, ptr %6, align 8
  %7 = load ptr, ptr %3, align 8
  %8 = getelementptr inbounds nuw %struct.yyguts_t, ptr %7, i32 0, i32 3
  store i64 0, ptr %8, align 8
  %9 = load ptr, ptr %3, align 8
  %10 = getelementptr inbounds nuw %struct.yyguts_t, ptr %9, i32 0, i32 4
  store i64 0, ptr %10, align 8
  %11 = load ptr, ptr %3, align 8
  %12 = getelementptr inbounds nuw %struct.yyguts_t, ptr %11, i32 0, i32 9
  store ptr null, ptr %12, align 8
  %13 = load ptr, ptr %3, align 8
  %14 = getelementptr inbounds nuw %struct.yyguts_t, ptr %13, i32 0, i32 10
  store i32 0, ptr %14, align 8
  %15 = load ptr, ptr %3, align 8
  %16 = getelementptr inbounds nuw %struct.yyguts_t, ptr %15, i32 0, i32 11
  store i32 0, ptr %16, align 4
  %17 = load ptr, ptr %3, align 8
  %18 = getelementptr inbounds nuw %struct.yyguts_t, ptr %17, i32 0, i32 13
  store i32 0, ptr %18, align 4
  %19 = load ptr, ptr %3, align 8
  %20 = getelementptr inbounds nuw %struct.yyguts_t, ptr %19, i32 0, i32 14
  store i32 0, ptr %20, align 8
  %21 = load ptr, ptr %3, align 8
  %22 = getelementptr inbounds nuw %struct.yyguts_t, ptr %21, i32 0, i32 15
  store ptr null, ptr %22, align 8
  %23 = load ptr, ptr %3, align 8
  %24 = getelementptr inbounds nuw %struct.yyguts_t, ptr %23, i32 0, i32 1
  store ptr null, ptr %24, align 8
  %25 = load ptr, ptr %3, align 8
  %26 = getelementptr inbounds nuw %struct.yyguts_t, ptr %25, i32 0, i32 2
  store ptr null, ptr %26, align 8
  call void @llvm.lifetime.end.p0(i64 8, ptr %3) #17
  ret i32 0
}

; Function Attrs: alwaysinline nounwind
define internal ptr @memset.inline(ptr %0, i32 %1, i64 %2) #5 {
  %4 = alloca ptr, align 8
  %5 = alloca i32, align 4
  %6 = alloca i64, align 8
  store ptr %0, ptr %4, align 8
  store i32 %1, ptr %5, align 4
  store i64 %2, ptr %6, align 8
  %7 = load ptr, ptr %4, align 8
  %8 = load i32, ptr %5, align 4
  %9 = load i64, ptr %6, align 8
  %10 = load ptr, ptr %4, align 8
  %11 = call i64 @llvm.objectsize.i64.p0(ptr %10, i1 false, i1 true, i1 true)
  %12 = call ptr @__memset_chk(ptr noundef %7, i32 noundef %8, i64 noundef %9, i64 noundef %11) #17
  ret ptr %12
}

; Function Attrs: nounwind null_pointer_is_valid sspstrong uwtable
define hidden void @uat_load_set_extra(ptr noundef %0, ptr noundef %1) #2 {
  %3 = alloca ptr, align 8
  %4 = alloca ptr, align 8
  %5 = alloca ptr, align 8
  store ptr %0, ptr %3, align 8
  store ptr %1, ptr %4, align 8
  call void @llvm.lifetime.start.p0(i64 8, ptr %5) #17
  %6 = load ptr, ptr %4, align 8
  store ptr %6, ptr %5, align 8
  %7 = load ptr, ptr %3, align 8
  %8 = load ptr, ptr %5, align 8
  %9 = getelementptr inbounds nuw %struct.yyguts_t, ptr %8, i32 0, i32 0
  store ptr %7, ptr %9, align 8
  call void @llvm.lifetime.end.p0(i64 8, ptr %5) #17
  ret void
}

; Function Attrs: null_pointer_is_valid sspstrong uwtable
define hidden i32 @uat_load_lex_init(ptr noundef %0) #0 {
  %2 = alloca i32, align 4
  %3 = alloca ptr, align 8
  store ptr %0, ptr %3, align 8
  %4 = load ptr, ptr %3, align 8
  %5 = icmp eq ptr %4, null
  br i1 %5, label %6, label %8

6:                                                ; preds = %1
  %7 = call ptr @__errno_location() #22
  store i32 22, ptr %7, align 4
  store i32 1, ptr %2, align 4
  br label %23

8:                                                ; preds = %1
  %9 = call noalias ptr @malloc(i64 noundef 144) #20
  %10 = load ptr, ptr %3, align 8
  store ptr %9, ptr %10, align 8
  %11 = load ptr, ptr %3, align 8
  %12 = load ptr, ptr %11, align 8
  %13 = icmp eq ptr %12, null
  br i1 %13, label %14, label %16

14:                                               ; preds = %8
  %15 = call ptr @__errno_location() #22
  store i32 12, ptr %15, align 4
  store i32 1, ptr %2, align 4
  br label %23

16:                                               ; preds = %8
  %17 = load ptr, ptr %3, align 8
  %18 = load ptr, ptr %17, align 8
  %19 = call ptr @memset.inline(ptr noundef %18, i32 noundef 0, i64 noundef 144) #17
  %20 = load ptr, ptr %3, align 8
  %21 = load ptr, ptr %20, align 8
  %22 = call i32 @yy_init_globals(ptr noundef %21)
  store i32 %22, ptr %2, align 4
  br label %23

23:                                               ; preds = %16, %14, %6
  %24 = load i32, ptr %2, align 4
  ret i32 %24
}

; Function Attrs: null_pointer_is_valid sspstrong uwtable
define hidden zeroext i1 @uat_load_str(ptr noundef %0, ptr noundef %1, ptr noundef %2) #0 {
  %4 = alloca i1, align 1
  %5 = alloca ptr, align 8
  %6 = alloca ptr, align 8
  %7 = alloca ptr, align 8
  %8 = alloca ptr, align 8
  %9 = alloca %struct.uat_load_scanner_state_t, align 8
  %10 = alloca i32, align 4
  store ptr %0, ptr %5, align 8
  store ptr %1, ptr %6, align 8
  store ptr %2, ptr %7, align 8
  call void @llvm.lifetime.start.p0(i64 8, ptr %8) #17
  call void @llvm.lifetime.start.p0(i64 72, ptr %9) #17
  %11 = load ptr, ptr %5, align 8
  %12 = getelementptr inbounds nuw %struct.uat_load_scanner_state_t, ptr %9, i32 0, i32 0
  store ptr %11, ptr %12, align 8
  %13 = load ptr, ptr %6, align 8
  %14 = call noalias ptr (ptr, ptr, ...) @wmem_strdup_printf(ptr noundef null, ptr noundef @.str.20, ptr noundef %13)
  %15 = getelementptr inbounds nuw %struct.uat_load_scanner_state_t, ptr %9, i32 0, i32 1
  store ptr %14, ptr %15, align 8
  %16 = getelementptr inbounds nuw %struct.uat_load_scanner_state_t, ptr %9, i32 0, i32 2
  store ptr null, ptr %16, align 8
  %17 = getelementptr inbounds nuw %struct.uat_load_scanner_state_t, ptr %9, i32 0, i32 3
  store i8 1, ptr %17, align 8
  %18 = getelementptr inbounds nuw %struct.uat_load_scanner_state_t, ptr %9, i32 0, i32 4
  store i32 0, ptr %18, align 4
  %19 = getelementptr inbounds nuw %struct.uat_load_scanner_state_t, ptr %9, i32 0, i32 5
  store ptr null, ptr %19, align 8
  %20 = getelementptr inbounds nuw %struct.uat_load_scanner_state_t, ptr %9, i32 0, i32 6
  store i32 0, ptr %20, align 8
  %21 = load ptr, ptr %5, align 8
  %22 = getelementptr inbounds nuw %struct.epan_uat, ptr %21, i32 0, i32 1
  %23 = load i64, ptr %22, align 8
  %24 = call noalias ptr @g_malloc0(i64 noundef %23) #24
  %25 = getelementptr inbounds nuw %struct.uat_load_scanner_state_t, ptr %9, i32 0, i32 7
  store ptr %24, ptr %25, align 8
  %26 = getelementptr inbounds nuw %struct.uat_load_scanner_state_t, ptr %9, i32 0, i32 8
  store i32 1, ptr %26, align 8
  %27 = getelementptr inbounds nuw %struct.uat_load_scanner_state_t, ptr %9, i32 0, i32 9
  store i64 0, ptr %27, align 8
  %28 = call i32 @uat_load_lex_init(ptr noundef %8)
  %29 = icmp ne i32 %28, 0
  br i1 %29, label %30, label %40

30:                                               ; preds = %3
  %31 = call ptr @__errno_location() #22
  %32 = load i32, ptr %31, align 4
  %33 = call ptr @g_strerror(i32 noundef %32) #22
  %34 = call noalias ptr @g_strdup(ptr noundef %33)
  %35 = load ptr, ptr %7, align 8
  store ptr %34, ptr %35, align 8
  %36 = getelementptr inbounds nuw %struct.uat_load_scanner_state_t, ptr %9, i32 0, i32 1
  %37 = load ptr, ptr %36, align 8
  call void @g_free(ptr noundef %37)
  %38 = getelementptr inbounds nuw %struct.uat_load_scanner_state_t, ptr %9, i32 0, i32 7
  %39 = load ptr, ptr %38, align 8
  call void @g_free(ptr noundef %39)
  store i1 false, ptr %4, align 1
  store i32 1, ptr %10, align 4
  br label %91

40:                                               ; preds = %3
  %41 = load ptr, ptr %8, align 8
  call void @uat_load_set_extra(ptr noundef %9, ptr noundef %41)
  %42 = load ptr, ptr %8, align 8
  %43 = call i32 @uat_load_lex(ptr noundef %42)
  %44 = load ptr, ptr %8, align 8
  %45 = call i32 @uat_load_lex_destroy(ptr noundef %44)
  %46 = getelementptr inbounds nuw %struct.uat_load_scanner_state_t, ptr %9, i32 0, i32 7
  %47 = load ptr, ptr %46, align 8
  call void @g_free(ptr noundef %47)
  %48 = getelementptr inbounds nuw %struct.uat_load_scanner_state_t, ptr %9, i32 0, i32 1
  %49 = load ptr, ptr %48, align 8
  call void @g_free(ptr noundef %49)
  %50 = load ptr, ptr %5, align 8
  %51 = getelementptr inbounds nuw %struct.epan_uat, ptr %50, i32 0, i32 19
  store i8 1, ptr %51, align 8
  %52 = load ptr, ptr %5, align 8
  %53 = getelementptr inbounds nuw %struct.epan_uat, ptr %52, i32 0, i32 22
  store i8 1, ptr %53, align 8
  br label %54

54:                                               ; preds = %40
  %55 = load ptr, ptr %5, align 8
  %56 = getelementptr inbounds nuw %struct.epan_uat, ptr %55, i32 0, i32 16
  %57 = load ptr, ptr %56, align 8
  %58 = getelementptr inbounds nuw %struct._GArray, ptr %57, i32 0, i32 0
  %59 = load ptr, ptr %58, align 8
  %60 = load ptr, ptr %5, align 8
  %61 = getelementptr inbounds nuw %struct.epan_uat, ptr %60, i32 0, i32 6
  %62 = load ptr, ptr %61, align 8
  store ptr %59, ptr %62, align 8
  %63 = load ptr, ptr %5, align 8
  %64 = getelementptr inbounds nuw %struct.epan_uat, ptr %63, i32 0, i32 16
  %65 = load ptr, ptr %64, align 8
  %66 = getelementptr inbounds nuw %struct._GArray, ptr %65, i32 0, i32 1
  %67 = load i32, ptr %66, align 8
  %68 = load ptr, ptr %5, align 8
  %69 = getelementptr inbounds nuw %struct.epan_uat, ptr %68, i32 0, i32 7
  %70 = load ptr, ptr %69, align 8
  store i32 %67, ptr %70, align 4
  br label %71

71:                                               ; preds = %54
  br label %72

72:                                               ; preds = %71
  %73 = getelementptr inbounds nuw %struct.uat_load_scanner_state_t, ptr %9, i32 0, i32 2
  %74 = load ptr, ptr %73, align 8
  %75 = icmp ne ptr %74, null
  br i1 %75, label %76, label %80

76:                                               ; preds = %72
  %77 = getelementptr inbounds nuw %struct.uat_load_scanner_state_t, ptr %9, i32 0, i32 2
  %78 = load ptr, ptr %77, align 8
  %79 = load ptr, ptr %7, align 8
  store ptr %78, ptr %79, align 8
  store i1 false, ptr %4, align 1
  store i32 1, ptr %10, align 4
  br label %91

80:                                               ; preds = %72
  %81 = load ptr, ptr %5, align 8
  %82 = getelementptr inbounds nuw %struct.epan_uat, ptr %81, i32 0, i32 11
  %83 = load ptr, ptr %82, align 8
  %84 = icmp ne ptr %83, null
  br i1 %84, label %85, label %89

85:                                               ; preds = %80
  %86 = load ptr, ptr %5, align 8
  %87 = getelementptr inbounds nuw %struct.epan_uat, ptr %86, i32 0, i32 11
  %88 = load ptr, ptr %87, align 8
  call void %88()
  br label %89

89:                                               ; preds = %85, %80
  %90 = load ptr, ptr %7, align 8
  store ptr null, ptr %90, align 8
  store i1 true, ptr %4, align 1
  store i32 1, ptr %10, align 4
  br label %91

91:                                               ; preds = %89, %76, %30
  call void @llvm.lifetime.end.p0(i64 72, ptr %9) #17
  call void @llvm.lifetime.end.p0(i64 8, ptr %8) #17
  %92 = load i1, ptr %4, align 1
  ret i1 %92
}