; Function Attrs: null_pointer_is_valid sspstrong uwtable
define hidden noundef zeroext i1 @uat_load_str(ptr noundef %0, ptr noundef %1, ptr noundef writeonly captures(none) initializes((0, 8)) %2) local_unnamed_addr #0 {
  %4 = alloca %struct.uat_load_scanner_state_t, align 8
  call void @llvm.lifetime.start.p0(i64 72, ptr nonnull %4) #26
  store ptr %0, ptr %4, align 8
  %5 = tail call noalias ptr (ptr, ptr, ...) @wmem_strdup_printf(ptr noundef null, ptr noundef nonnull @.str.20, ptr noundef %1)
  %6 = getelementptr inbounds nuw i8, ptr %4, i64 8
  store ptr %5, ptr %6, align 8
  %7 = getelementptr inbounds nuw i8, ptr %4, i64 16
  store ptr null, ptr %7, align 8
  %8 = getelementptr inbounds nuw i8, ptr %4, i64 24
  store i8 1, ptr %8, align 8
  %9 = getelementptr inbounds nuw i8, ptr %4, i64 28
  %10 = getelementptr inbounds nuw i8, ptr %0, i64 8
  call void @llvm.memset.p0.i64(ptr noundef nonnull align 4 dereferenceable(16) %9, i8 0, i64 16, i1 false)
  %11 = load i64, ptr %10, align 8
  %12 = tail call noalias ptr @g_malloc0(i64 noundef %11) #33
  %13 = getelementptr inbounds nuw i8, ptr %4, i64 48
  store ptr %12, ptr %13, align 8
  %14 = getelementptr inbounds nuw i8, ptr %4, i64 56
  store i32 1, ptr %14, align 8
  %15 = getelementptr inbounds nuw i8, ptr %4, i64 64
  store i64 0, ptr %15, align 8
  %calloc.i = tail call dereferenceable_or_null(144) ptr @calloc(i64 1, i64 144)
  %16 = icmp eq ptr %calloc.i, null
  br i1 %16, label %17, label %21

17:                                               ; preds = %3
  %18 = tail call ptr @__errno_location() #30
  store i32 12, ptr %18, align 4
  %19 = tail call ptr @g_strerror(i32 noundef 12) #30
  %20 = tail call noalias ptr @g_strdup(ptr noundef %19)
  store ptr %20, ptr %2, align 8
  tail call void @g_free(ptr noundef %5)
  tail call void @g_free(ptr noundef %12)
  br label %45

21:                                               ; preds = %3
  store ptr %4, ptr %calloc.i, align 8
  %22 = call i32 @uat_load_lex(ptr noundef nonnull %calloc.i)
  %23 = call i32 @uat_load_lex_destroy(ptr noundef nonnull %calloc.i)
  %24 = load ptr, ptr %13, align 8
  call void @g_free(ptr noundef %24)
  %25 = load ptr, ptr %6, align 8
  call void @g_free(ptr noundef %25)
  %26 = getelementptr inbounds nuw i8, ptr %0, i64 152
  store i8 1, ptr %26, align 8
  %27 = getelementptr inbounds nuw i8, ptr %0, i64 176
  store i8 1, ptr %27, align 8
  %28 = getelementptr inbounds nuw i8, ptr %0, i64 128
  %29 = load ptr, ptr %28, align 8
  %30 = load ptr, ptr %29, align 8
  %31 = getelementptr inbounds nuw i8, ptr %0, i64 48
  %32 = load ptr, ptr %31, align 8
  store ptr %30, ptr %32, align 8
  %33 = load ptr, ptr %28, align 8
  %34 = getelementptr inbounds nuw i8, ptr %33, i64 8
  %35 = load i32, ptr %34, align 8
  %36 = getelementptr inbounds nuw i8, ptr %0, i64 56
  %37 = load ptr, ptr %36, align 8
  store i32 %35, ptr %37, align 4
  %38 = load ptr, ptr %7, align 8
  %.not17 = icmp eq ptr %38, null
  br i1 %.not17, label %40, label %39

39:                                               ; preds = %21
  store ptr %38, ptr %2, align 8
  br label %45

40:                                               ; preds = %21
  %41 = getelementptr inbounds nuw i8, ptr %0, i64 88
  %42 = load ptr, ptr %41, align 8
  %.not18 = icmp eq ptr %42, null
  br i1 %.not18, label %44, label %43

43:                                               ; preds = %40
  call void %42()
  br label %44

44:                                               ; preds = %43, %40
  store ptr null, ptr %2, align 8
  br label %45

45:                                               ; preds = %44, %39, %17
  %.0 = phi i1 [ false, %17 ], [ false, %39 ], [ true, %44 ]
  call void @llvm.lifetime.end.p0(i64 72, ptr nonnull %4) #26
  ret i1 %.0
}